; Function Attrs: nounwind uwtable
define void @Gia_Iso4Test(ptr noundef %0) local_unnamed_addr #2 {
  %2 = tail call ptr @Gia_Iso4Gia(ptr noundef %0)
  %3 = getelementptr i8, ptr %2, i64 4
  %.val2328 = load i32, ptr %3, align 4, !tbaa !48
  %4 = icmp sgt i32 %.val2328, 0
  br i1 %4, label %.lr.ph30, label %.critedge

.lr.ph30:                                         ; preds = %1
  %5 = getelementptr i8, ptr %2, i64 8
  %6 = getelementptr i8, ptr %0, i64 32
  br label %7

7:                                                ; preds = %.lr.ph30, %.critedge2
  %indvars.iv32 = phi i64 [ 0, %.lr.ph30 ], [ %indvars.iv.next33, %.critedge2 ]
  %.val24 = load ptr, ptr %5, align 8, !tbaa !50
  %8 = getelementptr inbounds nuw %struct.Vec_Int_t_, ptr %.val24, i64 %indvars.iv32
  %9 = trunc nuw nsw i64 %indvars.iv32 to i32
  %10 = tail call i32 (ptr, ...) @printf(ptr noundef nonnull dereferenceable(1) @.str.2, i32 noundef %9)
  %11 = getelementptr i8, ptr %8, i64 4
  %.val2225 = load i32, ptr %11, align 4, !tbaa !36
  %12 = icmp sgt i32 %.val2225, 0
  br i1 %12, label %.lr.ph, label %.critedge2

.lr.ph:                                           ; preds = %7
  %13 = getelementptr i8, ptr %8, i64 8
  br label %14

14:                                               ; preds = %.lr.ph, %15
  %indvars.iv = phi i64 [ 0, %.lr.ph ], [ %indvars.iv.next, %15 ]
  %.val = load ptr, ptr %6, align 8, !tbaa !28
  %.not = icmp eq ptr %.val, null
  br i1 %.not, label %.critedge2, label %15

15:                                               ; preds = %14
  %.val21 = load ptr, ptr %13, align 8, !tbaa !34
  %16 = getelementptr inbounds nuw i32, ptr %.val21, i64 %indvars.iv
  %17 = load i32, ptr %16, align 4, !tbaa !29
  %18 = sext i32 %17 to i64
  %19 = getelementptr inbounds %struct.Gia_Obj_t_, ptr %.val, i64 %18, i32 1
  %20 = load i32, ptr %19, align 4, !tbaa !30
  %21 = tail call i32 (ptr, ...) @printf(ptr noundef nonnull dereferenceable(1) @.str.3, i32 noundef %17, i32 noundef %20)
  %indvars.iv.next = add nuw nsw i64 %indvars.iv, 1
  %.val22 = load i32, ptr %11, align 4, !tbaa !36
  %22 = sext i32 %.val22 to i64
  %23 = icmp slt i64 %indvars.iv.next, %22
  br i1 %23, label %14, label %.critedge2, !llvm.loop !54

.critedge2:                                       ; preds = %14, %15, %7
  %indvars.iv.next33 = add nuw nsw i64 %indvars.iv32, 1
  %.val23 = load i32, ptr %3, align 4, !tbaa !48
  %24 = sext i32 %.val23 to i64
  %25 = icmp slt i64 %indvars.iv.next33, %24
  br i1 %25, label %7, label %.critedge, !llvm.loop !55

.critedge:                                        ; preds = %.critedge2, %1
  %26 = load i32, ptr %2, align 8, !tbaa !56
  %27 = icmp sgt i32 %26, 0
  %28 = getelementptr inbounds nuw i8, ptr %2, i64 8
  %.pre.i.i = load ptr, ptr %28, align 8, !tbaa !50
  br i1 %27, label %.lr.ph.i.i, label %._crit_edge.i.i

.lr.ph.i.i:                                       ; preds = %.critedge, %36
  %29 = phi i32 [ %37, %36 ], [ %26, %.critedge ]
  %30 = phi ptr [ %38, %36 ], [ %.pre.i.i, %.critedge ]
  %indvars.iv.i.i = phi i64 [ %indvars.iv.next.i.i, %36 ], [ 0, %.critedge ]
  %31 = getelementptr inbounds nuw %struct.Vec_Int_t_, ptr %30, i64 %indvars.iv.i.i, i32 2
  %32 = load ptr, ptr %31, align 8, !tbaa !34
  %.not15.i.i = icmp eq ptr %32, null
  br i1 %.not15.i.i, label %36, label %33

33:                                               ; preds = %.lr.ph.i.i
  tail call void @free(ptr noundef nonnull %32) #19
  %34 = load ptr, ptr %28, align 8, !tbaa !50
  %35 = getelementptr inbounds nuw %struct.Vec_Int_t_, ptr %34, i64 %indvars.iv.i.i, i32 2
  store ptr null, ptr %35, align 8, !tbaa !34
  %.pre18.i.i = load i32, ptr %2, align 8, !tbaa !56
  br label %36

36:                                               ; preds = %33, %.lr.ph.i.i
  %37 = phi i32 [ %.pre18.i.i, %33 ], [ %29, %.lr.ph.i.i ]
  %38 = phi ptr [ %34, %33 ], [ %30, %.lr.ph.i.i ]
  %indvars.iv.next.i.i = add nuw nsw i64 %indvars.iv.i.i, 1
  %39 = sext i32 %37 to i64
  %40 = icmp slt i64 %indvars.iv.next.i.i, %39
  br i1 %40, label %.lr.ph.i.i, label %._crit_edge.thread.i.i, !llvm.loop !57

._crit_edge.i.i:                                  ; preds = %.critedge
  %.not.i.i = icmp eq ptr %.pre.i.i, null
  br i1 %.not.i.i, label %Vec_WecFree.exit, label %._crit_edge.thread.i.i

._crit_edge.thread.i.i:                           ; preds = %36, %._crit_edge.i.i
  %41 = phi ptr [ %.pre.i.i, %._crit_edge.i.i ], [ %38, %36 ]
  tail call void @free(ptr noundef nonnull %41) #19
  br label %Vec_WecFree.exit

Vec_WecFree.exit:                                 ; preds = %._crit_edge.i.i, %._crit_edge.thread.i.i
  tail call void @free(ptr noundef nonnull %2) #19
  ret void
}